target datalayout = "e-m:e-p270:32:32-p271:32:32-p272:64:64-i64:64-i128:128-f80:128-n8:16:32:64-S128"
target triple = "x86_64-pc-linux-gnu"

%struct.hashmap = type { ptr, ptr, ptr, i32, i32, i32, i32, i8 }
%struct.repository = type { ptr, ptr, ptr, ptr, ptr, %struct.strmap, %struct.strmap, %struct.repo_path_cache, ptr, ptr, ptr, ptr, %struct.repo_settings, ptr, ptr, ptr, ptr, ptr, ptr, i32, i32, i32, ptr, ptr, i32, i32, i8 }
%struct.strmap = type { %struct.hashmap, ptr, i8 }
%struct.repo_path_cache = type { ptr, ptr, ptr, ptr, ptr, ptr, ptr }
%struct.repo_settings = type { i32, i32, i32, i32, i32, i32, i32, i32, i32, i32, i32, i32, ptr, i32, i32, i32, i32, i32, i32, i32, i64, i64, i64 }
%struct.lock_file = type { ptr }

; Function Attrs: nounwind uwtable
define dso_local i32 @repo_refresh_and_write_index(ptr noundef %0, i32 noundef %1, i32 noundef %2, i32 noundef %3, ptr noundef %4, ptr noundef %5, ptr noundef %6) #0 {
  %8 = alloca i32, align 4
  %9 = alloca ptr, align 8
  %10 = alloca i32, align 4
  %11 = alloca i32, align 4
  %12 = alloca i32, align 4
  %13 = alloca ptr, align 8
  %14 = alloca ptr, align 8
  %15 = alloca ptr, align 8
  %16 = alloca %struct.lock_file, align 8
  %17 = alloca i32, align 4
  %18 = alloca i32, align 4
  %19 = alloca i32, align 4
  store ptr %0, ptr %9, align 8, !tbaa !48
  store i32 %1, ptr %10, align 4, !tbaa !9
  store i32 %2, ptr %11, align 4, !tbaa !9
  store i32 %3, ptr %12, align 4, !tbaa !9
  store ptr %4, ptr %13, align 8, !tbaa !86
  store ptr %5, ptr %14, align 8, !tbaa !11
  store ptr %6, ptr %15, align 8, !tbaa !11
  call void @llvm.lifetime.start.p0(i64 8, ptr %16) #12
  call void @llvm.memset.p0.i64(ptr align 8 %16, i8 0, i64 8, i1 false)
  call void @llvm.lifetime.start.p0(i64 4, ptr %17) #12
  call void @llvm.lifetime.start.p0(i64 4, ptr %18) #12
  store i32 0, ptr %18, align 4, !tbaa !9
  %20 = load ptr, ptr %9, align 8, !tbaa !48
  %21 = call i32 @repo_hold_locked_index(ptr noundef %20, ptr noundef %16, i32 noundef 0)
  store i32 %21, ptr %17, align 4, !tbaa !9
  %22 = load i32, ptr %12, align 4, !tbaa !9
  %23 = icmp ne i32 %22, 0
  br i1 %23, label %28, label %24

24:                                               ; preds = %7
  %25 = load i32, ptr %17, align 4, !tbaa !9
  %26 = icmp slt i32 %25, 0
  br i1 %26, label %27, label %28

27:                                               ; preds = %24
  store i32 -1, ptr %8, align 4
  store i32 1, ptr %19, align 4
  br label %53

28:                                               ; preds = %24, %7
  %29 = load ptr, ptr %9, align 8, !tbaa !48
  %30 = getelementptr inbounds nuw %struct.repository, ptr %29, i32 0, i32 15
  %31 = load ptr, ptr %30, align 8, !tbaa !88
  %32 = load i32, ptr %10, align 4, !tbaa !9
  %33 = load ptr, ptr %13, align 8, !tbaa !86
  %34 = load ptr, ptr %14, align 8, !tbaa !11
  %35 = load ptr, ptr %15, align 8, !tbaa !11
  %36 = call i32 @refresh_index(ptr noundef %31, i32 noundef %32, ptr noundef %33, ptr noundef %34, ptr noundef %35)
  %37 = icmp ne i32 %36, 0
  br i1 %37, label %38, label %39

38:                                               ; preds = %28
  store i32 1, ptr %18, align 4, !tbaa !9
  br label %39

39:                                               ; preds = %38, %28
  %40 = load i32, ptr %17, align 4, !tbaa !9
  %41 = icmp sle i32 0, %40
  br i1 %41, label %42, label %51

42:                                               ; preds = %39
  %43 = load ptr, ptr %9, align 8, !tbaa !48
  %44 = getelementptr inbounds nuw %struct.repository, ptr %43, i32 0, i32 15
  %45 = load ptr, ptr %44, align 8, !tbaa !88
  %46 = load i32, ptr %11, align 4, !tbaa !9
  %47 = or i32 1, %46
  %48 = call i32 @write_locked_index(ptr noundef %45, ptr noundef %16, i32 noundef %47)
  %49 = icmp ne i32 %48, 0
  br i1 %49, label %50, label %51

50:                                               ; preds = %42
  store i32 -1, ptr %18, align 4, !tbaa !9
  br label %51

51:                                               ; preds = %50, %42, %39
  %52 = load i32, ptr %18, align 4, !tbaa !9
  store i32 %52, ptr %8, align 4
  store i32 1, ptr %19, align 4
  br label %53

53:                                               ; preds = %51, %27
  call void @llvm.lifetime.end.p0(i64 4, ptr %18) #12
  call void @llvm.lifetime.end.p0(i64 4, ptr %17) #12
  call void @llvm.lifetime.end.p0(i64 8, ptr %16) #12
  %54 = load i32, ptr %8, align 4
  ret i32 %54
}