; Function Attrs: nounwind uwtable
define dso_local range(i32 -1, 2) i32 @repo_refresh_and_write_index(ptr noundef %0, i32 noundef %1, i32 noundef %2, i32 noundef %3, ptr noundef %4, ptr noundef %5, ptr noundef %6) local_unnamed_addr #0 {
  %8 = alloca %struct.lock_file, align 8
  call void @llvm.lifetime.start.p0(i64 8, ptr nonnull %8) #30
  store i64 0, ptr %8, align 8
  %9 = call i32 @repo_hold_locked_index(ptr noundef %0, ptr noundef nonnull %8, i32 noundef 0) #30
  %10 = icmp eq i32 %3, 0
  %11 = icmp slt i32 %9, 0
  %or.cond = select i1 %10, i1 %11, i1 false
  br i1 %or.cond, label %21, label %12

12:                                               ; preds = %7
  %13 = getelementptr inbounds nuw i8, ptr %0, i64 384
  %14 = load ptr, ptr %13, align 8, !tbaa !82
  %15 = call i32 @refresh_index(ptr noundef %14, i32 noundef %1, ptr noundef %4, ptr noundef %5, ptr noundef %6)
  %16 = icmp sgt i32 %9, -1
  br i1 %16, label %17, label %21

17:                                               ; preds = %12
  %18 = load ptr, ptr %13, align 8, !tbaa !82
  %19 = or i32 %2, 1
  %20 = call i32 @write_locked_index(ptr noundef %18, ptr noundef nonnull %8, i32 noundef %19)
  %.not14 = icmp eq i32 %20, 0
  %spec.select15 = select i1 %.not14, i32 %15, i32 -1
  br label %21

21:                                               ; preds = %17, %12, %7
  %.013 = phi i32 [ -1, %7 ], [ %15, %12 ], [ %spec.select15, %17 ]
  call void @llvm.lifetime.end.p0(i64 8, ptr nonnull %8) #30
  ret i32 %.013
}